; Function Attrs: nounwind uwtable
define noalias nonnull ptr @l_Lake_MainM_exit___rarg(i32 noundef %0, ptr noundef %1) local_unnamed_addr #0 {
  tail call void @lean_inc_heartbeat() #3
  %3 = tail call noalias ptr @mi_malloc_small(i64 noundef 24) #3
  %4 = icmp eq ptr %3, null
  br i1 %4, label %5, label %lean_alloc_ctor.exit

5:                                                ; preds = %2
  tail call void @lean_internal_panic_out_of_memory() #4
  unreachable

lean_alloc_ctor.exit:                             ; preds = %2
  %6 = zext i32 %0 to i64
  %7 = shl nuw nsw i64 %6, 1
  %8 = or disjoint i64 %7, 1
  %9 = inttoptr i64 %8 to ptr
  %10 = getelementptr inbounds nuw i8, ptr %3, i64 4
  store i32 1, ptr %3, align 4, !tbaa !4
  store i32 16908312, ptr %10, align 4
  %11 = getelementptr inbounds nuw i8, ptr %3, i64 8
  store ptr %9, ptr %11, align 8, !tbaa !9
  %12 = getelementptr inbounds nuw i8, ptr %3, i64 16
  store ptr %1, ptr %12, align 8, !tbaa !9
  ret ptr %3
}